target datalayout = "e-m:e-p270:32:32-p271:32:32-p272:64:64-i64:64-i128:128-f80:128-n8:16:32:64-S128"
target triple = "x86_64-pc-linux-gnu"

%class.CompileTask = type { ptr, i32, ptr, ptr, i32, i8, i8, i8, i32, i32, i32, ptr, i8, ptr, i32, i32, ptr, ptr, i8, i64, i64, ptr, ptr, i32, i32, ptr, i8, i64 }
%class.CompileQueue = type { ptr, ptr, ptr, ptr, i32, i32, i32, i32 }

; Function Attrs: mustprogress nounwind uwtable
define linkonce_odr hidden noundef ptr @_ZNK11CompileTask4nextEv(ptr noundef nonnull align 8 dereferenceable(176) %0) #1 comdat align 2 {
  %2 = alloca ptr, align 8
  store ptr %0, ptr %2, align 8
  %3 = load ptr, ptr %2, align 8
  %4 = getelementptr inbounds %class.CompileTask, ptr %3, i32 0, i32 16
  %5 = load ptr, ptr %4, align 8
  ret ptr %5
}

; Function Attrs: mustprogress nounwind uwtable
define linkonce_odr hidden noundef ptr @_ZNK11CompileTask4prevEv(ptr noundef nonnull align 8 dereferenceable(176) %0) #1 comdat align 2 {
  %2 = alloca ptr, align 8
  store ptr %0, ptr %2, align 8
  %3 = load ptr, ptr %2, align 8
  %4 = getelementptr inbounds %class.CompileTask, ptr %3, i32 0, i32 17
  %5 = load ptr, ptr %4, align 8
  ret ptr %5
}

; Function Attrs: mustprogress nounwind uwtable
define linkonce_odr hidden void @_ZN11CompileTask8set_prevEPS_(ptr noundef nonnull align 8 dereferenceable(176) %0, ptr noundef %1) #1 comdat align 2 {
  %3 = alloca ptr, align 8
  %4 = alloca ptr, align 8
  store ptr %0, ptr %3, align 8
  store ptr %1, ptr %4, align 8
  %5 = load ptr, ptr %3, align 8
  %6 = load ptr, ptr %4, align 8
  %7 = getelementptr inbounds %class.CompileTask, ptr %5, i32 0, i32 17
  store ptr %6, ptr %7, align 8
  ret void
}

; Function Attrs: mustprogress nounwind uwtable
define linkonce_odr hidden void @_ZN11CompileTask8set_nextEPS_(ptr noundef nonnull align 8 dereferenceable(176) %0, ptr noundef %1) #1 comdat align 2 {
  %3 = alloca ptr, align 8
  %4 = alloca ptr, align 8
  store ptr %0, ptr %3, align 8
  store ptr %1, ptr %4, align 8
  %5 = load ptr, ptr %3, align 8
  %6 = load ptr, ptr %4, align 8
  %7 = getelementptr inbounds %class.CompileTask, ptr %5, i32 0, i32 16
  store ptr %6, ptr %7, align 8
  ret void
}

; Function Attrs: mustprogress nounwind uwtable
define hidden void @_ZN12CompileQueue6removeEP11CompileTask(ptr noundef nonnull align 8 dereferenceable(48) %0, ptr noundef %1) #1 align 2 {
  %3 = alloca ptr, align 8
  %4 = alloca ptr, align 8
  store ptr %0, ptr %3, align 8
  store ptr %1, ptr %4, align 8
  %5 = load ptr, ptr %3, align 8
  %6 = load ptr, ptr %4, align 8
  %7 = call noundef ptr @_ZNK11CompileTask4prevEv(ptr noundef nonnull align 8 dereferenceable(176) %6)
  %8 = icmp ne ptr %7, null
  br i1 %8, label %9, label %14

9:                                                ; preds = %2
  %10 = load ptr, ptr %4, align 8
  %11 = call noundef ptr @_ZNK11CompileTask4prevEv(ptr noundef nonnull align 8 dereferenceable(176) %10)
  %12 = load ptr, ptr %4, align 8
  %13 = call noundef ptr @_ZNK11CompileTask4nextEv(ptr noundef nonnull align 8 dereferenceable(176) %12)
  call void @_ZN11CompileTask8set_nextEPS_(ptr noundef nonnull align 8 dereferenceable(176) %11, ptr noundef %13)
  br label %18

14:                                               ; preds = %2
  %15 = load ptr, ptr %4, align 8
  %16 = call noundef ptr @_ZNK11CompileTask4nextEv(ptr noundef nonnull align 8 dereferenceable(176) %15)
  %17 = getelementptr inbounds %class.CompileQueue, ptr %5, i32 0, i32 1
  store ptr %16, ptr %17, align 8
  br label %18

18:                                               ; preds = %14, %9
  %19 = load ptr, ptr %4, align 8
  %20 = call noundef ptr @_ZNK11CompileTask4nextEv(ptr noundef nonnull align 8 dereferenceable(176) %19)
  %21 = icmp ne ptr %20, null
  br i1 %21, label %22, label %27

22:                                               ; preds = %18
  %23 = load ptr, ptr %4, align 8
  %24 = call noundef ptr @_ZNK11CompileTask4nextEv(ptr noundef nonnull align 8 dereferenceable(176) %23)
  %25 = load ptr, ptr %4, align 8
  %26 = call noundef ptr @_ZNK11CompileTask4prevEv(ptr noundef nonnull align 8 dereferenceable(176) %25)
  call void @_ZN11CompileTask8set_prevEPS_(ptr noundef nonnull align 8 dereferenceable(176) %24, ptr noundef %26)
  br label %31

27:                                               ; preds = %18
  %28 = load ptr, ptr %4, align 8
  %29 = call noundef ptr @_ZNK11CompileTask4prevEv(ptr noundef nonnull align 8 dereferenceable(176) %28)
  %30 = getelementptr inbounds %class.CompileQueue, ptr %5, i32 0, i32 2
  store ptr %29, ptr %30, align 8
  br label %31

31:                                               ; preds = %27, %22
  %32 = getelementptr inbounds %class.CompileQueue, ptr %5, i32 0, i32 4
  %33 = load i32, ptr %32, align 8
  %34 = add nsw i32 %33, -1
  store i32 %34, ptr %32, align 8
  %35 = getelementptr inbounds %class.CompileQueue, ptr %5, i32 0, i32 7
  %36 = load i32, ptr %35, align 4
  %37 = add i32 %36, 1
  store i32 %37, ptr %35, align 4
  ret void
}

; Function Attrs: mustprogress nounwind uwtable
define hidden void @_ZN12CompileQueue21remove_and_mark_staleEP11CompileTask(ptr noundef nonnull align 8 dereferenceable(48) %0, ptr noundef %1) #1 align 2 {
  %3 = alloca ptr, align 8
  %4 = alloca ptr, align 8
  store ptr %0, ptr %3, align 8
  store ptr %1, ptr %4, align 8
  %5 = load ptr, ptr %3, align 8
  %6 = load ptr, ptr %4, align 8
  call void @_ZN12CompileQueue6removeEP11CompileTask(ptr noundef nonnull align 8 dereferenceable(48) %5, ptr noundef %6)
  %7 = load ptr, ptr %4, align 8
  %8 = getelementptr inbounds %class.CompileQueue, ptr %5, i32 0, i32 3
  %9 = load ptr, ptr %8, align 8
  call void @_ZN11CompileTask8set_nextEPS_(ptr noundef nonnull align 8 dereferenceable(176) %7, ptr noundef %9)
  %10 = load ptr, ptr %4, align 8
  call void @_ZN11CompileTask8set_prevEPS_(ptr noundef nonnull align 8 dereferenceable(176) %10, ptr noundef null)
  %11 = load ptr, ptr %4, align 8
  %12 = getelementptr inbounds %class.CompileQueue, ptr %5, i32 0, i32 3
  store ptr %11, ptr %12, align 8
  ret void
}