; Function Attrs: mustprogress nofree norecurse nosync nounwind willreturn memory(write, argmem: readwrite, inaccessiblemem: none) uwtable
define hidden void @_ZN12CompileQueue21remove_and_mark_staleEP11CompileTask(ptr nocapture noundef nonnull align 8 dereferenceable(48) %0, ptr noundef %1) local_unnamed_addr #4 align 2 {
  %3 = getelementptr inbounds i8, ptr %1, i64 96
  %4 = load ptr, ptr %3, align 8
  %.not.i = icmp eq ptr %4, null
  %5 = getelementptr inbounds i8, ptr %1, i64 88
  %6 = load ptr, ptr %5, align 8
  %7 = getelementptr inbounds i8, ptr %0, i64 8
  %8 = getelementptr inbounds i8, ptr %4, i64 88
  %.sink.i = select i1 %.not.i, ptr %7, ptr %8
  store ptr %6, ptr %.sink.i, align 8
  %.not9.i = icmp eq ptr %6, null
  %9 = load ptr, ptr %3, align 8
  %10 = getelementptr inbounds i8, ptr %0, i64 16
  %11 = getelementptr inbounds i8, ptr %6, i64 96
  %.sink10.i = select i1 %.not9.i, ptr %10, ptr %11
  store ptr %9, ptr %.sink10.i, align 8
  %12 = getelementptr inbounds i8, ptr %0, i64 32
  %13 = load i32, ptr %12, align 8
  %14 = add nsw i32 %13, -1
  store i32 %14, ptr %12, align 8
  %15 = getelementptr inbounds i8, ptr %0, i64 44
  %16 = load i32, ptr %15, align 4
  %17 = add i32 %16, 1
  store i32 %17, ptr %15, align 4
  %18 = getelementptr inbounds i8, ptr %0, i64 24
  %19 = load ptr, ptr %18, align 8
  store ptr %19, ptr %5, align 8
  store ptr null, ptr %3, align 8
  store ptr %1, ptr %18, align 8
  ret void
}